target datalayout = "e-m:e-p270:32:32-p271:32:32-p272:64:64-i64:64-i128:128-f80:128-n8:16:32:64-S128"
target triple = "x86_64-pc-linux-gnu"

%struct.rlimit = type { i64, i64 }

@PyExc_ValueError = external global ptr, align 8
@PyExc_OSError = external global ptr, align 8
@.str.8 = private unnamed_addr constant [27 x i8] c"invalid resource specified\00", align 1
@.str.14 = private unnamed_addr constant [36 x i8] c"current limit exceeds maximum limit\00", align 1
@.str.17 = private unnamed_addr constant [19 x i8] c"resource.setrlimit\00", align 1
@.str.18 = private unnamed_addr constant [3 x i8] c"iO\00", align 1
@.str.19 = private unnamed_addr constant [35 x i8] c"not allowed to raise maximum limit\00", align 1

; Function Attrs: nounwind uwtable
define internal ptr @resource_setrlimit_impl(ptr noundef %0, i32 noundef %1, ptr noundef %2) #0 {
  %4 = alloca ptr, align 8
  %5 = alloca ptr, align 8
  %6 = alloca i32, align 4
  %7 = alloca ptr, align 8
  %8 = alloca %struct.rlimit, align 8
  %9 = alloca i32, align 4
  store ptr %0, ptr %5, align 8, !tbaa !3
  store i32 %1, ptr %6, align 4, !tbaa !12
  store ptr %2, ptr %7, align 8, !tbaa !3
  call void @llvm.lifetime.start.p0(i64 16, ptr %8) #7
  %10 = load i32, ptr %6, align 4, !tbaa !12
  %11 = icmp slt i32 %10, 0
  br i1 %11, label %15, label %12

12:                                               ; preds = %3
  %13 = load i32, ptr %6, align 4, !tbaa !12
  %14 = icmp sge i32 %13, 16
  br i1 %14, label %15, label %17

15:                                               ; preds = %12, %3
  %16 = load ptr, ptr @PyExc_ValueError, align 8, !tbaa !3
  call void @PyErr_SetString(ptr noundef %16, ptr noundef @.str.8)
  store ptr null, ptr %4, align 8
  store i32 1, ptr %9, align 4
  br label %58

17:                                               ; preds = %12
  %18 = load i32, ptr %6, align 4, !tbaa !12
  %19 = load ptr, ptr %7, align 8, !tbaa !3
  %20 = icmp ne ptr %19, null
  br i1 %20, label %21, label %23

21:                                               ; preds = %17
  %22 = load ptr, ptr %7, align 8, !tbaa !3
  br label %25

23:                                               ; preds = %17
  %24 = call ptr @Py_GetConstantBorrowed(i32 noundef 0)
  br label %25

25:                                               ; preds = %23, %21
  %26 = phi ptr [ %22, %21 ], [ %24, %23 ]
  %27 = call i32 (ptr, ptr, ...) @PySys_Audit(ptr noundef @.str.17, ptr noundef @.str.18, i32 noundef %18, ptr noundef %26)
  %28 = icmp slt i32 %27, 0
  br i1 %28, label %29, label %30

29:                                               ; preds = %25
  store ptr null, ptr %4, align 8
  store i32 1, ptr %9, align 4
  br label %58

30:                                               ; preds = %25
  %31 = load ptr, ptr %7, align 8, !tbaa !3
  %32 = call i32 @py2rlimit(ptr noundef %31, ptr noundef %8)
  %33 = icmp slt i32 %32, 0
  br i1 %33, label %34, label %35

34:                                               ; preds = %30
  store ptr null, ptr %4, align 8
  store i32 1, ptr %9, align 4
  br label %58

35:                                               ; preds = %30
  %36 = load i32, ptr %6, align 4, !tbaa !12
  %37 = call i32 @setrlimit64(i32 noundef %36, ptr noundef %8) #7
  %38 = icmp eq i32 %37, -1
  br i1 %38, label %39, label %56

39:                                               ; preds = %35
  %40 = call ptr @__errno_location() #8
  %41 = load i32, ptr %40, align 4, !tbaa !12
  %42 = icmp eq i32 %41, 22
  br i1 %42, label %43, label %45

43:                                               ; preds = %39
  %44 = load ptr, ptr @PyExc_ValueError, align 8, !tbaa !3
  call void @PyErr_SetString(ptr noundef %44, ptr noundef @.str.14)
  br label %55

45:                                               ; preds = %39
  %46 = call ptr @__errno_location() #8
  %47 = load i32, ptr %46, align 4, !tbaa !12
  %48 = icmp eq i32 %47, 1
  br i1 %48, label %49, label %51

49:                                               ; preds = %45
  %50 = load ptr, ptr @PyExc_ValueError, align 8, !tbaa !3
  call void @PyErr_SetString(ptr noundef %50, ptr noundef @.str.19)
  br label %54

51:                                               ; preds = %45
  %52 = load ptr, ptr @PyExc_OSError, align 8, !tbaa !3
  %53 = call ptr @PyErr_SetFromErrno(ptr noundef %52)
  br label %54

54:                                               ; preds = %51, %49
  br label %55

55:                                               ; preds = %54, %43
  store ptr null, ptr %4, align 8
  store i32 1, ptr %9, align 4
  br label %58

56:                                               ; preds = %35
  %57 = call ptr @Py_GetConstantBorrowed(i32 noundef 0)
  store ptr %57, ptr %4, align 8
  store i32 1, ptr %9, align 4
  br label %58

58:                                               ; preds = %56, %55, %34, %29, %15
  call void @llvm.lifetime.end.p0(i64 16, ptr %8) #7
  %59 = load ptr, ptr %4, align 8
  ret ptr %59
}