; Function Attrs: nounwind uwtable
define internal fastcc ptr @resource_setrlimit_impl(i32 noundef %0, ptr noundef %1) unnamed_addr #0 {
  %3 = alloca %struct.rlimit, align 8
  call void @llvm.lifetime.start.p0(i64 16, ptr nonnull %3) #6
  %or.cond = icmp ugt i32 %0, 15
  br i1 %or.cond, label %4, label %6

4:                                                ; preds = %2
  %5 = load ptr, ptr @PyExc_ValueError, align 8, !tbaa !10
  tail call void @PyErr_SetString(ptr noundef %5, ptr noundef nonnull @.str.8) #6
  br label %31

6:                                                ; preds = %2
  %.not = icmp eq ptr %1, null
  br i1 %.not, label %7, label %9

7:                                                ; preds = %6
  %8 = tail call ptr @Py_GetConstantBorrowed(i32 noundef 0) #6
  br label %9

9:                                                ; preds = %6, %7
  %10 = phi ptr [ %8, %7 ], [ %1, %6 ]
  %11 = tail call i32 (ptr, ptr, ...) @PySys_Audit(ptr noundef nonnull @.str.17, ptr noundef nonnull @.str.18, i32 noundef %0, ptr noundef %10) #6
  %12 = icmp slt i32 %11, 0
  br i1 %12, label %31, label %13

13:                                               ; preds = %9
  %14 = call fastcc i32 @py2rlimit(ptr noundef %1, ptr noundef %3)
  %15 = icmp slt i32 %14, 0
  br i1 %15, label %31, label %16

16:                                               ; preds = %13
  %17 = call i32 @setrlimit64(i32 noundef %0, ptr noundef nonnull %3) #6
  %18 = icmp eq i32 %17, -1
  br i1 %18, label %19, label %29

19:                                               ; preds = %16
  %20 = tail call ptr @__errno_location() #7
  %21 = load i32, ptr %20, align 4, !tbaa !12
  switch i32 %21, label %26 [
    i32 22, label %22
    i32 1, label %24
  ]

22:                                               ; preds = %19
  %23 = load ptr, ptr @PyExc_ValueError, align 8, !tbaa !10
  call void @PyErr_SetString(ptr noundef %23, ptr noundef nonnull @.str.14) #6
  br label %31

24:                                               ; preds = %19
  %25 = load ptr, ptr @PyExc_ValueError, align 8, !tbaa !10
  call void @PyErr_SetString(ptr noundef %25, ptr noundef nonnull @.str.19) #6
  br label %31

26:                                               ; preds = %19
  %27 = load ptr, ptr @PyExc_OSError, align 8, !tbaa !10
  %28 = call ptr @PyErr_SetFromErrno(ptr noundef %27) #6
  br label %31

29:                                               ; preds = %16
  %30 = call ptr @Py_GetConstantBorrowed(i32 noundef 0) #6
  br label %31

31:                                               ; preds = %22, %26, %24, %13, %9, %29, %4
  %.0 = phi ptr [ null, %4 ], [ %30, %29 ], [ null, %9 ], [ null, %13 ], [ null, %24 ], [ null, %26 ], [ null, %22 ]
  call void @llvm.lifetime.end.p0(i64 16, ptr nonnull %3) #6
  ret ptr %.0
}